target datalayout = "e-m:e-p270:32:32-p271:32:32-p272:64:64-i64:64-i128:128-f80:128-n8:16:32:64-S128"
target triple = "x86_64-pc-linux-gnu"

%struct.lua_TValue = type { %union.Value, [1 x i32], i32 }
%union.Value = type { ptr }
%struct.Closure = type { i8, i8, i8, i8, i8, i8, i8, ptr, ptr, %union.anon.0 }
%union.anon.0 = type { %struct.anon }
%struct.anon = type { ptr, ptr, ptr, [1 x %struct.lua_TValue] }
%struct.anon.1 = type { ptr, [1 x %struct.lua_TValue] }

; Function Attrs: mustprogress uwtable
define dso_local noundef i32 @_Z14lua_breakpointP9lua_Stateiii(ptr noundef %0, i32 noundef %1, i32 noundef %2, i32 noundef %3) #0 {
  %5 = alloca ptr, align 8
  %6 = alloca i32, align 4
  %7 = alloca i32, align 4
  %8 = alloca i32, align 4
  %9 = alloca ptr, align 8
  %10 = alloca ptr, align 8
  %11 = alloca i32, align 4
  store ptr %0, ptr %5, align 8, !tbaa !4
  store i32 %1, ptr %6, align 4, !tbaa !9
  store i32 %2, ptr %7, align 4, !tbaa !9
  store i32 %3, ptr %8, align 4, !tbaa !9
  call void @llvm.lifetime.start.p0(i64 8, ptr %9) #11
  %12 = load ptr, ptr %5, align 8, !tbaa !4
  %13 = load i32, ptr %6, align 4, !tbaa !9
  %14 = call noundef ptr @_Z13luaA_toobjectP9lua_Statei(ptr noundef %12, i32 noundef %13)
  store ptr %14, ptr %9, align 8, !tbaa !53
  call void @llvm.lifetime.start.p0(i64 8, ptr %10) #11
  %15 = load ptr, ptr %9, align 8, !tbaa !53
  %16 = getelementptr inbounds nuw %struct.lua_TValue, ptr %15, i32 0, i32 0
  %17 = load ptr, ptr %16, align 8, !tbaa !37
  %18 = getelementptr inbounds nuw %struct.Closure, ptr %17, i32 0, i32 9
  %19 = getelementptr inbounds nuw %struct.anon.1, ptr %18, i32 0, i32 0
  %20 = load ptr, ptr %19, align 8, !tbaa !37
  store ptr %20, ptr %10, align 8, !tbaa !27
  call void @llvm.lifetime.start.p0(i64 4, ptr %11) #11
  %21 = load ptr, ptr %10, align 8, !tbaa !27
  %22 = load i32, ptr %7, align 4, !tbaa !9
  %23 = call noundef i32 @_ZL11getnextlineP5Protoi(ptr noundef %21, i32 noundef %22)
  store i32 %23, ptr %11, align 4, !tbaa !9
  %24 = load i32, ptr %11, align 4, !tbaa !9
  %25 = icmp ne i32 %24, -1
  br i1 %25, label %26, label %32

26:                                               ; preds = %4
  %27 = load ptr, ptr %5, align 8, !tbaa !4
  %28 = load ptr, ptr %10, align 8, !tbaa !27
  %29 = load i32, ptr %11, align 4, !tbaa !9
  %30 = load i32, ptr %8, align 4, !tbaa !9
  %31 = icmp ne i32 %30, 0
  call void @_Z15luaG_breakpointP9lua_StateP5Protoib(ptr noundef %27, ptr noundef %28, i32 noundef %29, i1 noundef zeroext %31)
  br label %32

32:                                               ; preds = %26, %4
  %33 = load i32, ptr %11, align 4, !tbaa !9
  call void @llvm.lifetime.end.p0(i64 4, ptr %11) #11
  call void @llvm.lifetime.end.p0(i64 8, ptr %10) #11
  call void @llvm.lifetime.end.p0(i64 8, ptr %9) #11
  ret i32 %33
}