; Function Attrs: mustprogress uwtable
define dso_local noundef i32 @_Z14lua_breakpointP9lua_Stateiii(ptr noundef %0, i32 noundef %1, i32 noundef %2, i32 noundef %3) local_unnamed_addr #0 {
  %5 = tail call noundef ptr @_Z13luaA_toobjectP9lua_Statei(ptr noundef %0, i32 noundef %1)
  %6 = load ptr, ptr %5, align 8, !tbaa !26
  %7 = getelementptr inbounds nuw i8, ptr %6, i64 24
  %8 = load ptr, ptr %7, align 8, !tbaa !26
  %9 = tail call fastcc noundef i32 @_ZL11getnextlineP5Protoi(ptr noundef %8, i32 noundef %2)
  %.not = icmp eq i32 %9, -1
  br i1 %.not, label %12, label %10

10:                                               ; preds = %4
  %11 = icmp ne i32 %3, 0
  tail call void @_Z15luaG_breakpointP9lua_StateP5Protoib(ptr noundef %0, ptr noundef %8, i32 noundef %9, i1 noundef zeroext %11)
  br label %12

12:                                               ; preds = %10, %4
  ret i32 %9
}